; ModuleID = '24/1701.c'
source_filename = "24/1701.c"
target datalayout = "e-m:e-p270:32:32-p271:32:32-p272:64:64-i64:64-f80:128-n8:16:32:64-S128"
target triple = "x86_64-pc-linux-gnu"

@a = common dso_local global [100000 x i8] zeroinitializer, align 16
@.str = private unnamed_addr constant [4 x i8] c"%s\0A\00", align 1

; Function Attrs: noinline nounwind uwtable
define dso_local i32 @main() #0 {
  %1 = alloca i32, align 4
  %2 = alloca [100 x [100 x i8]], align 16
  %3 = alloca i32, align 4
  %4 = alloca i32, align 4
  %5 = alloca i32, align 4
  %6 = alloca i32, align 4
  %7 = alloca [100 x i32], align 16
  %8 = alloca i32, align 4
  %9 = alloca i32, align 4
  %10 = alloca i32, align 4
  %11 = alloca i32, align 4
  %12 = alloca i32, align 4
  %13 = alloca i32, align 4
  %14 = alloca i32, align 4
  %15 = alloca i32, align 4
  store i32 0, i32* %1, align 4
  %16 = call i32 (i8*, ...) bitcast (i32 (...)* @gets to i32 (i8*, ...)*)(i8* getelementptr inbounds ([100000 x i8], [100000 x i8]* @a, i64 0, i64 0))
  %17 = call i64 @strlen(i8* getelementptr inbounds ([100000 x i8], [100000 x i8]* @a, i64 0, i64 0)) #3
  %18 = trunc i64 %17 to i32
  store i32 %18, i32* %3, align 4
  store i32 0, i32* %4, align 4
  store i32 0, i32* %5, align 4
  store i32 0, i32* %6, align 4
  br label %19

19:                                               ; preds = %60, %0
  %20 = load i32, i32* %6, align 4
  %21 = load i32, i32* %3, align 4
  %22 = icmp slt i32 %20, %21
  br i1 %22, label %23, label %63

23:                                               ; preds = %19
  %24 = load i32, i32* %6, align 4
  %25 = sext i32 %24 to i64
  %26 = getelementptr inbounds [100000 x i8], [100000 x i8]* @a, i64 0, i64 %25
  %27 = load i8, i8* %26, align 1
  %28 = sext i8 %27 to i32
  %29 = icmp ne i32 %28, 32
  br i1 %29, label %30, label %50

30:                                               ; preds = %23
  %31 = load i32, i32* %6, align 4
  %32 = sext i32 %31 to i64
  %33 = getelementptr inbounds [100000 x i8], [100000 x i8]* @a, i64 0, i64 %32
  %34 = load i8, i8* %33, align 1
  %35 = sext i8 %34 to i32
  %36 = icmp ne i32 %35, 44
  br i1 %36, label %37, label %50

37:                                               ; preds = %30
  %38 = load i32, i32* %6, align 4
  %39 = sext i32 %38 to i64
  %40 = getelementptr inbounds [100000 x i8], [100000 x i8]* @a, i64 0, i64 %39
  %41 = load i8, i8* %40, align 1
  %42 = load i32, i32* %4, align 4
  %43 = sext i32 %42 to i64
  %44 = getelementptr inbounds [100 x [100 x i8]], [100 x [100 x i8]]* %2, i64 0, i64 %43
  %45 = load i32, i32* %5, align 4
  %46 = sext i32 %45 to i64
  %47 = getelementptr inbounds [100 x i8], [100 x i8]* %44, i64 0, i64 %46
  store i8 %41, i8* %47, align 1
  %48 = load i32, i32* %5, align 4
  %49 = add nsw i32 %48, 1
  store i32 %49, i32* %5, align 4
  br label %59

50:                                               ; preds = %30, %23
  %51 = load i32, i32* %4, align 4
  %52 = sext i32 %51 to i64
  %53 = getelementptr inbounds [100 x [100 x i8]], [100 x [100 x i8]]* %2, i64 0, i64 %52
  %54 = load i32, i32* %5, align 4
  %55 = sext i32 %54 to i64
  %56 = getelementptr inbounds [100 x i8], [100 x i8]* %53, i64 0, i64 %55
  store i8 0, i8* %56, align 1
  %57 = load i32, i32* %4, align 4
  %58 = add nsw i32 %57, 1
  store i32 %58, i32* %4, align 4
  store i32 0, i32* %5, align 4
  br label %59

59:                                               ; preds = %50, %37
  br label %60

60:                                               ; preds = %59
  %61 = load i32, i32* %6, align 4
  %62 = add nsw i32 %61, 1
  store i32 %62, i32* %6, align 4
  br label %19

63:                                               ; preds = %19
  %64 = load i32, i32* %4, align 4
  %65 = sext i32 %64 to i64
  %66 = getelementptr inbounds [100 x [100 x i8]], [100 x [100 x i8]]* %2, i64 0, i64 %65
  %67 = load i32, i32* %5, align 4
  %68 = sext i32 %67 to i64
  %69 = getelementptr inbounds [100 x i8], [100 x i8]* %66, i64 0, i64 %68
  store i8 0, i8* %69, align 1
  store i32 0, i32* %8, align 4
  store i32 0, i32* %6, align 4
  br label %70

70:                                               ; preds = %86, %63
  %71 = load i32, i32* %6, align 4
  %72 = load i32, i32* %4, align 4
  %73 = icmp sle i32 %71, %72
  br i1 %73, label %74, label %89

74:                                               ; preds = %70
  %75 = load i32, i32* %6, align 4
  %76 = sext i32 %75 to i64
  %77 = getelementptr inbounds [100 x [100 x i8]], [100 x [100 x i8]]* %2, i64 0, i64 %76
  %78 = getelementptr inbounds [100 x i8], [100 x i8]* %77, i64 0, i64 0
  %79 = call i64 @strlen(i8* %78) #3
  %80 = trunc i64 %79 to i32
  %81 = load i32, i32* %8, align 4
  %82 = sext i32 %81 to i64
  %83 = getelementptr inbounds [100 x i32], [100 x i32]* %7, i64 0, i64 %82
  store i32 %80, i32* %83, align 4
  %84 = load i32, i32* %8, align 4
  %85 = add nsw i32 %84, 1
  store i32 %85, i32* %8, align 4
  br label %86

86:                                               ; preds = %74
  %87 = load i32, i32* %6, align 4
  %88 = add nsw i32 %87, 1
  store i32 %88, i32* %6, align 4
  br label %70

89:                                               ; preds = %70
  %90 = getelementptr inbounds [100 x i32], [100 x i32]* %7, i64 0, i64 0
  %91 = load i32, i32* %90, align 16
  store i32 %91, i32* %9, align 4
  store i32 0, i32* %10, align 4
  store i32 0, i32* %6, align 4
  br label %92

92:                                               ; preds = %105, %89
  %93 = load i32, i32* %6, align 4
  %94 = load i32, i32* %8, align 4
  %95 = icmp slt i32 %93, %94
  br i1 %95, label %96, label %108

96:                                               ; preds = %92
  %97 = load i32, i32* %9, align 4
  %98 = load i32, i32* %6, align 4
  %99 = sext i32 %98 to i64
  %100 = getelementptr inbounds [100 x i32], [100 x i32]* %7, i64 0, i64 %99
  %101 = load i32, i32* %100, align 4
  %102 = icmp ne i32 %97, %101
  br i1 %102, label %103, label %104

103:                                              ; preds = %96
  store i32 1, i32* %10, align 4
  br label %108

104:                                              ; preds = %96
  br label %105

105:                                              ; preds = %104
  %106 = load i32, i32* %6, align 4
  %107 = add nsw i32 %106, 1
  store i32 %107, i32* %6, align 4
  br label %92

108:                                              ; preds = %103, %92
  %109 = load i32, i32* %10, align 4
  %110 = icmp eq i32 %109, 0
  br i1 %110, label %111, label %118

111:                                              ; preds = %108
  %112 = getelementptr inbounds [100 x [100 x i8]], [100 x [100 x i8]]* %2, i64 0, i64 0
  %113 = getelementptr inbounds [100 x i8], [100 x i8]* %112, i64 0, i64 0
  %114 = call i32 (i8*, ...) @printf(i8* getelementptr inbounds ([4 x i8], [4 x i8]* @.str, i64 0, i64 0), i8* %113)
  %115 = getelementptr inbounds [100 x [100 x i8]], [100 x [100 x i8]]* %2, i64 0, i64 0
  %116 = getelementptr inbounds [100 x i8], [100 x i8]* %115, i64 0, i64 0
  %117 = call i32 (i8*, ...) @printf(i8* getelementptr inbounds ([4 x i8], [4 x i8]* @.str, i64 0, i64 0), i8* %116)
  br label %229

118:                                              ; preds = %108
  %119 = getelementptr inbounds [100 x i32], [100 x i32]* %7, i64 0, i64 0
  %120 = load i32, i32* %119, align 16
  store i32 %120, i32* %11, align 4
  %121 = getelementptr inbounds [100 x i32], [100 x i32]* %7, i64 0, i64 0
  %122 = load i32, i32* %121, align 16
  store i32 %122, i32* %12, align 4
  store i32 0, i32* %13, align 4
  br label %123

123:                                              ; preds = %145, %118
  %124 = load i32, i32* %13, align 4
  %125 = load i32, i32* %4, align 4
  %126 = icmp sle i32 %124, %125
  br i1 %126, label %127, label %148

127:                                              ; preds = %123
  %128 = load i32, i32* %13, align 4
  %129 = sext i32 %128 to i64
  %130 = getelementptr inbounds [100 x i32], [100 x i32]* %7, i64 0, i64 %129
  %131 = load i32, i32* %130, align 4
  %132 = load i32, i32* %11, align 4
  %133 = icmp sgt i32 %131, %132
  br i1 %133, label %134, label %144

134:                                              ; preds = %127
  %135 = load i32, i32* %11, align 4
  store i32 %135, i32* %14, align 4
  %136 = load i32, i32* %13, align 4
  %137 = sext i32 %136 to i64
  %138 = getelementptr inbounds [100 x i32], [100 x i32]* %7, i64 0, i64 %137
  %139 = load i32, i32* %138, align 4
  store i32 %139, i32* %11, align 4
  %140 = load i32, i32* %14, align 4
  %141 = load i32, i32* %13, align 4
  %142 = sext i32 %141 to i64
  %143 = getelementptr inbounds [100 x i32], [100 x i32]* %7, i64 0, i64 %142
  store i32 %140, i32* %143, align 4
  br label %144

144:                                              ; preds = %134, %127
  br label %145

145:                                              ; preds = %144
  %146 = load i32, i32* %13, align 4
  %147 = add nsw i32 %146, 1
  store i32 %147, i32* %13, align 4
  br label %123

148:                                              ; preds = %123
  store i32 0, i32* %13, align 4
  br label %149

149:                                              ; preds = %177, %148
  %150 = load i32, i32* %13, align 4
  %151 = load i32, i32* %4, align 4
  %152 = icmp sle i32 %150, %151
  br i1 %152, label %153, label %180

153:                                              ; preds = %149
  %154 = load i32, i32* %13, align 4
  %155 = sext i32 %154 to i64
  %156 = getelementptr inbounds [100 x i32], [100 x i32]* %7, i64 0, i64 %155
  %157 = load i32, i32* %156, align 4
  %158 = load i32, i32* %12, align 4
  %159 = icmp slt i32 %157, %158
  br i1 %159, label %160, label %176

160:                                              ; preds = %153
  %161 = load i32, i32* %13, align 4
  %162 = sext i32 %161 to i64
  %163 = getelementptr inbounds [100 x i32], [100 x i32]* %7, i64 0, i64 %162
  %164 = load i32, i32* %163, align 4
  %165 = icmp ne i32 %164, 0
  br i1 %165, label %166, label %176

166:                                              ; preds = %160
  %167 = load i32, i32* %12, align 4
  store i32 %167, i32* %15, align 4
  %168 = load i32, i32* %13, align 4
  %169 = sext i32 %168 to i64
  %170 = getelementptr inbounds [100 x i32], [100 x i32]* %7, i64 0, i64 %169
  %171 = load i32, i32* %170, align 4
  store i32 %171, i32* %12, align 4
  %172 = load i32, i32* %15, align 4
  %173 = load i32, i32* %13, align 4
  %174 = sext i32 %173 to i64
  %175 = getelementptr inbounds [100 x i32], [100 x i32]* %7, i64 0, i64 %174
  store i32 %172, i32* %175, align 4
  br label %176

176:                                              ; preds = %166, %160, %153
  br label %177

177:                                              ; preds = %176
  %178 = load i32, i32* %13, align 4
  %179 = add nsw i32 %178, 1
  store i32 %179, i32* %13, align 4
  br label %149

180:                                              ; preds = %149
  store i32 0, i32* %13, align 4
  br label %181

181:                                              ; preds = %201, %180
  %182 = load i32, i32* %13, align 4
  %183 = load i32, i32* %4, align 4
  %184 = icmp sle i32 %182, %183
  br i1 %184, label %185, label %204

185:                                              ; preds = %181
  %186 = load i32, i32* %13, align 4
  %187 = sext i32 %186 to i64
  %188 = getelementptr inbounds [100 x [100 x i8]], [100 x [100 x i8]]* %2, i64 0, i64 %187
  %189 = getelementptr inbounds [100 x i8], [100 x i8]* %188, i64 0, i64 0
  %190 = call i64 @strlen(i8* %189) #3
  %191 = load i32, i32* %11, align 4
  %192 = sext i32 %191 to i64
  %193 = icmp eq i64 %190, %192
  br i1 %193, label %194, label %200

194:                                              ; preds = %185
  %195 = load i32, i32* %13, align 4
  %196 = sext i32 %195 to i64
  %197 = getelementptr inbounds [100 x [100 x i8]], [100 x [100 x i8]]* %2, i64 0, i64 %196
  %198 = getelementptr inbounds [100 x i8], [100 x i8]* %197, i64 0, i64 0
  %199 = call i32 (i8*, ...) @printf(i8* getelementptr inbounds ([4 x i8], [4 x i8]* @.str, i64 0, i64 0), i8* %198)
  br label %204

200:                                              ; preds = %185
  br label %201

201:                                              ; preds = %200
  %202 = load i32, i32* %13, align 4
  %203 = add nsw i32 %202, 1
  store i32 %203, i32* %13, align 4
  br label %181

204:                                              ; preds = %194, %181
  store i32 0, i32* %13, align 4
  br label %205

205:                                              ; preds = %225, %204
  %206 = load i32, i32* %13, align 4
  %207 = load i32, i32* %4, align 4
  %208 = icmp sle i32 %206, %207
  br i1 %208, label %209, label %228

209:                                              ; preds = %205
  %210 = load i32, i32* %13, align 4
  %211 = sext i32 %210 to i64
  %212 = getelementptr inbounds [100 x [100 x i8]], [100 x [100 x i8]]* %2, i64 0, i64 %211
  %213 = getelementptr inbounds [100 x i8], [100 x i8]* %212, i64 0, i64 0
  %214 = call i64 @strlen(i8* %213) #3
  %215 = load i32, i32* %12, align 4
  %216 = sext i32 %215 to i64
  %217 = icmp eq i64 %214, %216
  br i1 %217, label %218, label %224

218:                                              ; preds = %209
  %219 = load i32, i32* %13, align 4
  %220 = sext i32 %219 to i64
  %221 = getelementptr inbounds [100 x [100 x i8]], [100 x [100 x i8]]* %2, i64 0, i64 %220
  %222 = getelementptr inbounds [100 x i8], [100 x i8]* %221, i64 0, i64 0
  %223 = call i32 (i8*, ...) @printf(i8* getelementptr inbounds ([4 x i8], [4 x i8]* @.str, i64 0, i64 0), i8* %222)
  br label %228

224:                                              ; preds = %209
  br label %225

225:                                              ; preds = %224
  %226 = load i32, i32* %13, align 4
  %227 = add nsw i32 %226, 1
  store i32 %227, i32* %13, align 4
  br label %205

228:                                              ; preds = %218, %205
  br label %229

229:                                              ; preds = %228, %111
  ret i32 0
}

declare dso_local i32 @gets(...) #1

; Function Attrs: nounwind readonly
declare dso_local i64 @strlen(i8*) #2

declare dso_local i32 @printf(i8*, ...) #1


!llvm.module.flags = !{!0}
!llvm.ident = !{!1}

!0 = !{i32 1, !"wchar_size", i32 4}
!1 = !{!"clang version 10.0.0-4ubuntu1 "}
